; Function Attrs: mustprogress nounwind uwtable
define internal void @_ZL11ctorArrayTyIN5clang6interp8FloatingEEvPNS1_5BlockEPSt4bytebbbbPKNS1_10DescriptorE(ptr nocapture readnone %0, ptr noundef %1, i1 zeroext %2, i1 zeroext %3, i1 zeroext %4, i1 zeroext %5, ptr nocapture noundef readonly %6) #0 {
  %8 = alloca %"class.llvm::detail::IEEEFloat", align 8
  %9 = getelementptr inbounds nuw i8, ptr %1, i64 24
  store i8 0, ptr %9, align 8
  %10 = getelementptr inbounds i8, ptr %1, i64 32
  %11 = getelementptr inbounds nuw i8, ptr %6, i64 12
  %12 = load i32, ptr %11, align 4
  %13 = icmp eq i32 %12, -1
  br i1 %13, label %._crit_edge, label %_ZNK5clang6interp10Descriptor11getNumElemsEv.exit

_ZNK5clang6interp10Descriptor11getNumElemsEv.exit: ; preds = %7
  %14 = getelementptr inbounds nuw i8, ptr %6, i64 8
  %15 = load i32, ptr %14, align 8
  %.not = icmp ugt i32 %15, %12
  br i1 %.not, label %._crit_edge, label %.lr.ph.preheader

.lr.ph.preheader:                                 ; preds = %_ZNK5clang6interp10Descriptor11getNumElemsEv.exit
  %16 = udiv i32 %12, %15
  %wide.trip.count = zext i32 %16 to i64
  br label %.lr.ph

.lr.ph:                                           ; preds = %.lr.ph.preheader, %.lr.ph
  %indvars.iv = phi i64 [ 0, %.lr.ph.preheader ], [ %indvars.iv.next, %.lr.ph ]
  call void @llvm.lifetime.start.p0(i64 24, ptr nonnull %8)
  %17 = getelementptr inbounds %"class.clang::interp::Floating", ptr %10, i64 %indvars.iv, i32 0, i32 1
  call void @_ZN4llvm6detail9IEEEFloatC1Ef(ptr noundef nonnull align 8 dereferenceable(24) %8, float noundef 0.000000e+00) #20
  %18 = tail call noundef nonnull align 1 ptr @_ZN4llvm11APFloatBase10IEEEsingleEv() #23
  call void @_ZN4llvm7APFloat7StorageC1ENS_6detail9IEEEFloatERKNS_12fltSemanticsE(ptr noundef nonnull align 8 dereferenceable(24) %17, ptr noundef nonnull %8, ptr noundef nonnull align 1 %18) #20
  call void @_ZN4llvm6detail9IEEEFloatD1Ev(ptr noundef nonnull align 8 dereferenceable(24) %8) #20
  call void @llvm.lifetime.end.p0(i64 24, ptr nonnull %8)
  %indvars.iv.next = add nuw nsw i64 %indvars.iv, 1
  %exitcond.not = icmp eq i64 %indvars.iv.next, %wide.trip.count
  br i1 %exitcond.not, label %._crit_edge, label %.lr.ph, !llvm.loop !14

._crit_edge:                                      ; preds = %.lr.ph, %7, %_ZNK5clang6interp10Descriptor11getNumElemsEv.exit
  ret void
}